target datalayout = "e-m:e-p270:32:32-p271:32:32-p272:64:64-i64:64-i128:128-f80:128-n8:16:32:64-S128"
target triple = "x86_64-pc-linux-gnu"

%struct._generic_N_Vector = type { ptr, ptr, ptr }
%struct._N_VectorContent_Serial = type { i64, i32, ptr }

; Function Attrs: nounwind uwtable
define double @N_VMinQuotient_Serial(ptr noundef %0, ptr noundef %1) #0 {
  %3 = alloca ptr, align 8
  %4 = alloca ptr, align 8
  %5 = alloca i32, align 4
  %6 = alloca i64, align 8
  %7 = alloca i64, align 8
  %8 = alloca ptr, align 8
  %9 = alloca ptr, align 8
  %10 = alloca double, align 8
  store ptr %0, ptr %3, align 8, !tbaa !10
  store ptr %1, ptr %4, align 8, !tbaa !10
  call void @llvm.lifetime.start.p0(i64 4, ptr %5) #6
  call void @llvm.lifetime.start.p0(i64 8, ptr %6) #6
  call void @llvm.lifetime.start.p0(i64 8, ptr %7) #6
  call void @llvm.lifetime.start.p0(i64 8, ptr %8) #6
  call void @llvm.lifetime.start.p0(i64 8, ptr %9) #6
  call void @llvm.lifetime.start.p0(i64 8, ptr %10) #6
  store ptr null, ptr %9, align 8, !tbaa !69
  store ptr null, ptr %8, align 8, !tbaa !69
  %11 = load ptr, ptr %3, align 8, !tbaa !10
  %12 = getelementptr inbounds nuw %struct._generic_N_Vector, ptr %11, i32 0, i32 0
  %13 = load ptr, ptr %12, align 8, !tbaa !61
  %14 = getelementptr inbounds nuw %struct._N_VectorContent_Serial, ptr %13, i32 0, i32 0
  %15 = load i64, ptr %14, align 8, !tbaa !62
  store i64 %15, ptr %7, align 8, !tbaa !3
  %16 = load ptr, ptr %3, align 8, !tbaa !10
  %17 = getelementptr inbounds nuw %struct._generic_N_Vector, ptr %16, i32 0, i32 0
  %18 = load ptr, ptr %17, align 8, !tbaa !61
  %19 = getelementptr inbounds nuw %struct._N_VectorContent_Serial, ptr %18, i32 0, i32 2
  %20 = load ptr, ptr %19, align 8, !tbaa !67
  store ptr %20, ptr %8, align 8, !tbaa !69
  %21 = load ptr, ptr %4, align 8, !tbaa !10
  %22 = getelementptr inbounds nuw %struct._generic_N_Vector, ptr %21, i32 0, i32 0
  %23 = load ptr, ptr %22, align 8, !tbaa !61
  %24 = getelementptr inbounds nuw %struct._N_VectorContent_Serial, ptr %23, i32 0, i32 2
  %25 = load ptr, ptr %24, align 8, !tbaa !67
  store ptr %25, ptr %9, align 8, !tbaa !69
  store i32 1, ptr %5, align 4, !tbaa !74
  store double 0x7FEFFFFFFFFFFFFF, ptr %10, align 8, !tbaa !72
  store i64 0, ptr %6, align 8, !tbaa !3
  br label %26

26:                                               ; preds = %78, %2
  %27 = load i64, ptr %6, align 8, !tbaa !3
  %28 = load i64, ptr %7, align 8, !tbaa !3
  %29 = icmp slt i64 %27, %28
  br i1 %29, label %30, label %81

30:                                               ; preds = %26
  %31 = load ptr, ptr %9, align 8, !tbaa !69
  %32 = load i64, ptr %6, align 8, !tbaa !3
  %33 = getelementptr inbounds double, ptr %31, i64 %32
  %34 = load double, ptr %33, align 8, !tbaa !72
  %35 = fcmp oeq double %34, 0.000000e+00
  br i1 %35, label %36, label %37

36:                                               ; preds = %30
  br label %78

37:                                               ; preds = %30
  %38 = load i32, ptr %5, align 4, !tbaa !74
  %39 = icmp ne i32 %38, 0
  br i1 %39, label %66, label %40

40:                                               ; preds = %37
  %41 = load double, ptr %10, align 8, !tbaa !72
  %42 = load ptr, ptr %8, align 8, !tbaa !69
  %43 = load i64, ptr %6, align 8, !tbaa !3
  %44 = getelementptr inbounds double, ptr %42, i64 %43
  %45 = load double, ptr %44, align 8, !tbaa !72
  %46 = load ptr, ptr %9, align 8, !tbaa !69
  %47 = load i64, ptr %6, align 8, !tbaa !3
  %48 = getelementptr inbounds double, ptr %46, i64 %47
  %49 = load double, ptr %48, align 8, !tbaa !72
  %50 = fdiv double %45, %49
  %51 = fcmp olt double %41, %50
  br i1 %51, label %52, label %54

52:                                               ; preds = %40
  %53 = load double, ptr %10, align 8, !tbaa !72
  br label %64

54:                                               ; preds = %40
  %55 = load ptr, ptr %8, align 8, !tbaa !69
  %56 = load i64, ptr %6, align 8, !tbaa !3
  %57 = getelementptr inbounds double, ptr %55, i64 %56
  %58 = load double, ptr %57, align 8, !tbaa !72
  %59 = load ptr, ptr %9, align 8, !tbaa !69
  %60 = load i64, ptr %6, align 8, !tbaa !3
  %61 = getelementptr inbounds double, ptr %59, i64 %60
  %62 = load double, ptr %61, align 8, !tbaa !72
  %63 = fdiv double %58, %62
  br label %64

64:                                               ; preds = %54, %52
  %65 = phi double [ %53, %52 ], [ %63, %54 ]
  store double %65, ptr %10, align 8, !tbaa !72
  br label %76

66:                                               ; preds = %37
  %67 = load ptr, ptr %8, align 8, !tbaa !69
  %68 = load i64, ptr %6, align 8, !tbaa !3
  %69 = getelementptr inbounds double, ptr %67, i64 %68
  %70 = load double, ptr %69, align 8, !tbaa !72
  %71 = load ptr, ptr %9, align 8, !tbaa !69
  %72 = load i64, ptr %6, align 8, !tbaa !3
  %73 = getelementptr inbounds double, ptr %71, i64 %72
  %74 = load double, ptr %73, align 8, !tbaa !72
  %75 = fdiv double %70, %74
  store double %75, ptr %10, align 8, !tbaa !72
  store i32 0, ptr %5, align 4, !tbaa !74
  br label %76

76:                                               ; preds = %66, %64
  br label %77

77:                                               ; preds = %76
  br label %78

78:                                               ; preds = %77, %36
  %79 = load i64, ptr %6, align 8, !tbaa !3
  %80 = add nsw i64 %79, 1
  store i64 %80, ptr %6, align 8, !tbaa !3
  br label %26

81:                                               ; preds = %26
  %82 = load double, ptr %10, align 8, !tbaa !72
  call void @llvm.lifetime.end.p0(i64 8, ptr %10) #6
  call void @llvm.lifetime.end.p0(i64 8, ptr %9) #6
  call void @llvm.lifetime.end.p0(i64 8, ptr %8) #6
  call void @llvm.lifetime.end.p0(i64 8, ptr %7) #6
  call void @llvm.lifetime.end.p0(i64 8, ptr %6) #6
  call void @llvm.lifetime.end.p0(i64 4, ptr %5) #6
  ret double %82
}