; Function Attrs: nofree norecurse nosync nounwind memory(read, inaccessiblemem: none) uwtable
define double @N_VMinQuotient_Serial(ptr noundef readonly captures(none) %0, ptr noundef readonly captures(none) %1) #8 {
  %3 = load ptr, ptr %0, align 8, !tbaa !54
  %4 = load i64, ptr %3, align 8, !tbaa !55
  %5 = getelementptr inbounds nuw i8, ptr %3, i64 16
  %6 = load ptr, ptr %5, align 8, !tbaa !61
  %7 = load ptr, ptr %1, align 8, !tbaa !54
  %8 = getelementptr inbounds nuw i8, ptr %7, i64 16
  %9 = load ptr, ptr %8, align 8, !tbaa !61
  %10 = icmp sgt i64 %4, 0
  br i1 %10, label %.lr.ph, label %._crit_edge

.lr.ph:                                           ; preds = %2, %20
  %.030 = phi double [ %.1, %20 ], [ 0x7FEFFFFFFFFFFFFF, %2 ]
  %.02329 = phi i32 [ %.124, %20 ], [ 1, %2 ]
  %.02528 = phi i64 [ %21, %20 ], [ 0, %2 ]
  %11 = getelementptr inbounds nuw double, ptr %9, i64 %.02528
  %12 = load double, ptr %11, align 8, !tbaa !64
  %13 = fcmp oeq double %12, 0.000000e+00
  br i1 %13, label %20, label %14

14:                                               ; preds = %.lr.ph
  %.not = icmp eq i32 %.02329, 0
  %15 = getelementptr inbounds nuw double, ptr %6, i64 %.02528
  %16 = load double, ptr %15, align 8, !tbaa !64
  %17 = fdiv double %16, %12
  br i1 %.not, label %18, label %20

18:                                               ; preds = %14
  %19 = fcmp olt double %.030, %17
  %.0. = select i1 %19, double %.030, double %17
  br label %20

20:                                               ; preds = %14, %18, %.lr.ph
  %.124 = phi i32 [ %.02329, %.lr.ph ], [ 0, %18 ], [ 0, %14 ]
  %.1 = phi double [ %.030, %.lr.ph ], [ %.0., %18 ], [ %17, %14 ]
  %21 = add nuw nsw i64 %.02528, 1
  %exitcond.not = icmp eq i64 %21, %4
  br i1 %exitcond.not, label %._crit_edge, label %.lr.ph

._crit_edge:                                      ; preds = %20, %2
  %.0.lcssa = phi double [ 0x7FEFFFFFFFFFFFFF, %2 ], [ %.1, %20 ]
  ret double %.0.lcssa
}